; Function Attrs: mustprogress uwtable
define internal void @_ZN4LuauL8fnVisitVIRZNS_9copyErrorINS_12TypeMismatchEEEvRT_RNS_9TypeArenaERNS_10CloneStateEEUlOS3_E0_NS_37ExplicitFunctionAnnotationRecommendedEEEvS4_PNSt11conditionalIXsr3stdE10is_const_vIT0_EEKvvE4typeE(ptr noundef nonnull readonly align 8 captures(none) dereferenceable(16) %0, ptr noundef captures(none) %1) #5 {
  %3 = load ptr, ptr %0, align 8, !tbaa !1032
  %4 = getelementptr inbounds nuw i8, ptr %0, i64 8
  %5 = load ptr, ptr %4, align 8, !tbaa !1034
  %6 = getelementptr inbounds nuw i8, ptr %1, i64 24
  %7 = load ptr, ptr %6, align 8, !tbaa !182
  %8 = tail call noundef ptr @_ZN4Luau5cloneEPKNS_4TypeERNS_9TypeArenaERNS_10CloneStateE(ptr noundef %7, ptr noundef nonnull align 8 dereferenceable(88) %3, ptr noundef nonnull align 8 dereferenceable(120) %5)
  store ptr %8, ptr %6, align 8, !tbaa !197
  %9 = load ptr, ptr %1, align 8, !tbaa !1011
  %10 = getelementptr inbounds nuw i8, ptr %1, i64 8
  %11 = load ptr, ptr %10, align 8, !tbaa !1011
  %.not19.i.i = icmp eq ptr %9, %11
  br i1 %.not19.i.i, label %_ZZN4Luau9copyErrorINS_12TypeMismatchEEEvRT_RNS_9TypeArenaERNS_10CloneStateEENKUlOS2_E0_clIRNS_37ExplicitFunctionAnnotationRecommendedEEEDaS8_.exit, label %.lr.ph.i.i

.lr.ph.i.i:                                       ; preds = %2, %.lr.ph.i.i
  %.sroa.013.020.i.i = phi ptr [ %15, %.lr.ph.i.i ], [ %9, %2 ]
  %12 = getelementptr inbounds nuw i8, ptr %.sroa.013.020.i.i, i64 32
  %13 = load ptr, ptr %12, align 8, !tbaa !182
  %14 = tail call noundef ptr @_ZN4Luau5cloneEPKNS_4TypeERNS_9TypeArenaERNS_10CloneStateE(ptr noundef %13, ptr noundef nonnull align 8 dereferenceable(88) %3, ptr noundef nonnull align 8 dereferenceable(120) %5)
  store ptr %14, ptr %12, align 8, !tbaa !182
  %15 = getelementptr inbounds nuw i8, ptr %.sroa.013.020.i.i, i64 40
  %.not.i.i = icmp eq ptr %15, %11
  br i1 %.not.i.i, label %_ZZN4Luau9copyErrorINS_12TypeMismatchEEEvRT_RNS_9TypeArenaERNS_10CloneStateEENKUlOS2_E0_clIRNS_37ExplicitFunctionAnnotationRecommendedEEEDaS8_.exit, label %.lr.ph.i.i

_ZZN4Luau9copyErrorINS_12TypeMismatchEEEvRT_RNS_9TypeArenaERNS_10CloneStateEENKUlOS2_E0_clIRNS_37ExplicitFunctionAnnotationRecommendedEEEDaS8_.exit: ; preds = %.lr.ph.i.i, %2
  ret void
}